; Function Attrs: nounwind uwtable
define i32 @Aig_ManCountXors(ptr noundef readonly captures(none) %0) local_unnamed_addr #0 {
  %2 = alloca ptr, align 8
  %3 = alloca ptr, align 8
  call void @llvm.lifetime.start.p0(i64 8, ptr nonnull %2) #10
  call void @llvm.lifetime.start.p0(i64 8, ptr nonnull %3) #10
  %4 = getelementptr inbounds nuw i8, ptr %0, i64 32
  %5 = load ptr, ptr %4, align 8, !tbaa !60
  %6 = getelementptr i8, ptr %5, i64 4
  %.val16 = load i32, ptr %6, align 4, !tbaa !61
  %7 = icmp sgt i32 %.val16, 0
  br i1 %7, label %.lr.ph, label %.critedge

.lr.ph:                                           ; preds = %1, %23
  %indvars.iv = phi i64 [ %indvars.iv.next, %23 ], [ 0, %1 ]
  %8 = phi ptr [ %24, %23 ], [ %5, %1 ]
  %.018 = phi i32 [ %.1, %23 ], [ 0, %1 ]
  %9 = getelementptr i8, ptr %8, i64 8
  %.val14 = load ptr, ptr %9, align 8, !tbaa !63
  %10 = getelementptr inbounds nuw ptr, ptr %.val14, i64 %indvars.iv
  %11 = load ptr, ptr %10, align 8, !tbaa !64
  %12 = icmp eq ptr %11, null
  br i1 %12, label %23, label %13

13:                                               ; preds = %.lr.ph
  %14 = getelementptr i8, ptr %11, i64 24
  %.val15 = load i64, ptr %14, align 8
  %15 = trunc i64 %.val15 to i32
  %16 = and i32 %15, 7
  %17 = add nsw i32 %16, -7
  %narrow.i = icmp ult i32 %17, -2
  br i1 %narrow.i, label %23, label %18

18:                                               ; preds = %13
  %19 = call i32 @Aig_ObjIsMuxType(ptr noundef nonnull %11) #10
  %.not12 = icmp eq i32 %19, 0
  br i1 %.not12, label %23, label %20

20:                                               ; preds = %18
  %21 = call i32 @Aig_ObjRecognizeExor(ptr noundef nonnull %11, ptr noundef nonnull %2, ptr noundef nonnull %3) #10
  %.not13 = icmp ne i32 %21, 0
  %22 = zext i1 %.not13 to i32
  %spec.select = add nsw i32 %.018, %22
  br label %23

23:                                               ; preds = %20, %13, %.lr.ph, %18
  %.1 = phi i32 [ %.018, %.lr.ph ], [ %.018, %18 ], [ %.018, %13 ], [ %spec.select, %20 ]
  %indvars.iv.next = add nuw nsw i64 %indvars.iv, 1
  %24 = load ptr, ptr %4, align 8, !tbaa !60
  %25 = getelementptr i8, ptr %24, i64 4
  %.val = load i32, ptr %25, align 4, !tbaa !61
  %26 = sext i32 %.val to i64
  %27 = icmp slt i64 %indvars.iv.next, %26
  br i1 %27, label %.lr.ph, label %.critedge, !llvm.loop !65

.critedge:                                        ; preds = %23, %1
  %.0.lcssa = phi i32 [ 0, %1 ], [ %.1, %23 ]
  call void @llvm.lifetime.end.p0(i64 8, ptr nonnull %3) #10
  call void @llvm.lifetime.end.p0(i64 8, ptr nonnull %2) #10
  ret i32 %.0.lcssa
}